; Function Attrs: nounwind uwtable
define hidden range(i32 0, 2) i32 @gtk_check_version(i32 noundef %0) local_unnamed_addr #0 {
  %2 = load ptr, ptr @gtk, align 8
  %.not = icmp eq ptr %2, null
  br i1 %.not, label %3, label %get_loaded.exit

3:                                                ; preds = %1
  %.b17.i.i = load i1, ptr @get_libs_order.n_libs, align 4
  br i1 %.b17.i.i, label %..lr.ph.i_crit_edge.i, label %4

..lr.ph.i_crit_edge.i:                            ; preds = %3
  %.pre.i = load ptr, ptr @get_libs_order.load_order, align 8
  br label %.lr.ph.i.i

4:                                                ; preds = %3
  store i1 true, ptr @get_libs_order.n_libs, align 4
  %5 = tail call noalias dereferenceable_or_null(24) ptr @calloc(i64 noundef 3, i64 noundef 8) #5
  store ptr %5, ptr @get_libs_order.load_order, align 8
  %6 = icmp eq ptr %5, null
  br i1 %6, label %.lr.ph.i.i4, label %.lr.ph.i.i

.lr.ph.i.i:                                       ; preds = %4, %..lr.ph.i_crit_edge.i
  %7 = phi ptr [ %.pre.i, %..lr.ph.i_crit_edge.i ], [ %5, %4 ]
  br label %8

8:                                                ; preds = %8, %.lr.ph.i.i
  %9 = phi i1 [ true, %.lr.ph.i.i ], [ false, %8 ]
  %indvars.iv.i.i = phi i64 [ 0, %.lr.ph.i.i ], [ 1, %8 ]
  %.019.i.i = phi i32 [ 0, %.lr.ph.i.i ], [ %spec.select.i.i, %8 ]
  %10 = getelementptr inbounds [2 x %struct.GtkLib], ptr @gtk_libs, i64 0, i64 %indvars.iv.i.i
  %11 = getelementptr inbounds ptr, ptr %7, i64 %indvars.iv.i.i
  store ptr %10, ptr %11, align 8
  %12 = load i32, ptr %10, align 8
  %13 = icmp eq i32 %12, 0
  %14 = trunc nuw nsw i64 %indvars.iv.i.i to i32
  %spec.select.i.i = select i1 %13, i32 %14, i32 %.019.i.i
  br i1 %9, label %8, label %._crit_edge.i.i, !llvm.loop !6

._crit_edge.i.i:                                  ; preds = %8
  %.not.i.i = icmp eq i32 %spec.select.i.i, 0
  br i1 %.not.i.i, label %get_libs_order.exit.i.preheader, label %.critedge.i.i

.critedge.i.i:                                    ; preds = %._crit_edge.i.i
  %15 = load ptr, ptr %7, align 8
  %16 = getelementptr inbounds i8, ptr %7, i64 8
  store ptr %15, ptr %16, align 8
  store ptr getelementptr inbounds (i8, ptr @gtk_libs, i64 40), ptr %7, align 8
  br label %get_libs_order.exit.i.preheader

get_libs_order.exit.i.preheader:                  ; preds = %.critedge.i.i, %._crit_edge.i.i
  br label %get_libs_order.exit.i

get_libs_order.exit.i:                            ; preds = %get_libs_order.exit.i.preheader, %26
  %.010.i = phi ptr [ %27, %26 ], [ %7, %get_libs_order.exit.i.preheader ]
  %17 = load ptr, ptr @gtk, align 8
  %.not.i = icmp eq ptr %17, null
  br i1 %.not.i, label %18, label %32

18:                                               ; preds = %get_libs_order.exit.i
  %19 = load ptr, ptr %.010.i, align 8
  %.not13.i = icmp eq ptr %19, null
  br i1 %.not13.i, label %32, label %20

20:                                               ; preds = %18
  %21 = getelementptr inbounds i8, ptr %19, i64 32
  %22 = load ptr, ptr %21, align 8
  %23 = getelementptr inbounds i8, ptr %19, i64 16
  %24 = load ptr, ptr %23, align 8
  %25 = tail call i32 %22(ptr noundef %24, i32 noundef 0) #6
  %.not14.i = icmp eq i32 %25, 0
  br i1 %.not14.i, label %26, label %get_loaded.exit

26:                                               ; preds = %20
  %27 = getelementptr inbounds i8, ptr %.010.i, i64 8
  %28 = load ptr, ptr %21, align 8
  %29 = getelementptr inbounds i8, ptr %19, i64 8
  %30 = load ptr, ptr %29, align 8
  %31 = tail call i32 %28(ptr noundef %30, i32 noundef 0) #6
  %.not15.i = icmp eq i32 %31, 0
  br i1 %.not15.i, label %get_libs_order.exit.i, label %get_loaded.exit, !llvm.loop !8

32:                                               ; preds = %18, %get_libs_order.exit.i
  %.b17.i.i3.pr = load i1, ptr @get_libs_order.n_libs, align 4
  br i1 %.b17.i.i3.pr, label %...lr.ph.i_crit_edge.i14_crit_edge, label %33

...lr.ph.i_crit_edge.i14_crit_edge:               ; preds = %32
  %.pre.i15.pre = load ptr, ptr @get_libs_order.load_order, align 8
  br label %.lr.ph.i.i4

33:                                               ; preds = %32
  store i1 true, ptr @get_libs_order.n_libs, align 4
  %34 = tail call noalias dereferenceable_or_null(24) ptr @calloc(i64 noundef 3, i64 noundef 8) #5
  store ptr %34, ptr @get_libs_order.load_order, align 8
  %35 = icmp eq ptr %34, null
  br i1 %35, label %get_loaded.exit, label %.lr.ph.i.i4

.lr.ph.i.i4:                                      ; preds = %4, %...lr.ph.i_crit_edge.i14_crit_edge, %33
  %36 = phi ptr [ %34, %33 ], [ %.pre.i15.pre, %...lr.ph.i_crit_edge.i14_crit_edge ], [ null, %4 ]
  br label %37

37:                                               ; preds = %37, %.lr.ph.i.i4
  %38 = phi i1 [ true, %.lr.ph.i.i4 ], [ false, %37 ]
  %indvars.iv.i.i5 = phi i64 [ 0, %.lr.ph.i.i4 ], [ 1, %37 ]
  %.019.i.i6 = phi i32 [ 0, %.lr.ph.i.i4 ], [ %spec.select.i.i7, %37 ]
  %39 = getelementptr inbounds [2 x %struct.GtkLib], ptr @gtk_libs, i64 0, i64 %indvars.iv.i.i5
  %40 = getelementptr inbounds ptr, ptr %36, i64 %indvars.iv.i.i5
  store ptr %39, ptr %40, align 8
  %41 = load i32, ptr %39, align 8
  %42 = icmp eq i32 %41, %0
  %43 = trunc nuw nsw i64 %indvars.iv.i.i5 to i32
  %spec.select.i.i7 = select i1 %42, i32 %43, i32 %.019.i.i6
  br i1 %38, label %37, label %._crit_edge.i.i8, !llvm.loop !6

._crit_edge.i.i8:                                 ; preds = %37
  %.not.i.i9 = icmp eq i32 %spec.select.i.i7, 0
  br i1 %.not.i.i9, label %get_libs_order.exit.i11.preheader, label %.critedge.i.i10

.critedge.i.i10:                                  ; preds = %._crit_edge.i.i8
  %44 = load ptr, ptr %36, align 8
  %45 = getelementptr inbounds i8, ptr %36, i64 8
  store ptr %44, ptr %45, align 8
  store ptr getelementptr inbounds (i8, ptr @gtk_libs, i64 40), ptr %36, align 8
  br label %get_libs_order.exit.i11.preheader

get_libs_order.exit.i11.preheader:                ; preds = %.critedge.i.i10, %._crit_edge.i.i8
  br label %get_libs_order.exit.i11

get_libs_order.exit.i11:                          ; preds = %get_libs_order.exit.i11.preheader, %53
  %.08.i = phi ptr [ %54, %53 ], [ %36, %get_libs_order.exit.i11.preheader ]
  %46 = load ptr, ptr %.08.i, align 8
  %.not.i12 = icmp eq ptr %46, null
  br i1 %.not.i12, label %get_loaded.exit, label %47

47:                                               ; preds = %get_libs_order.exit.i11
  %48 = getelementptr inbounds i8, ptr %46, i64 32
  %49 = load ptr, ptr %48, align 8
  %50 = getelementptr inbounds i8, ptr %46, i64 16
  %51 = load ptr, ptr %50, align 8
  %52 = tail call i32 %49(ptr noundef %51, i32 noundef 1) #6
  %.not11.i = icmp eq i32 %52, 0
  br i1 %.not11.i, label %53, label %get_loaded.exit

53:                                               ; preds = %47
  %54 = getelementptr inbounds i8, ptr %.08.i, i64 8
  %55 = load ptr, ptr %48, align 8
  %56 = getelementptr inbounds i8, ptr %46, i64 8
  %57 = load ptr, ptr %56, align 8
  %58 = tail call i32 %55(ptr noundef %57, i32 noundef 1) #6
  %.not12.i = icmp eq i32 %58, 0
  br i1 %.not12.i, label %get_libs_order.exit.i11, label %get_loaded.exit, !llvm.loop !10

get_loaded.exit:                                  ; preds = %26, %20, %53, %47, %get_libs_order.exit.i11, %33, %1
  %.0 = phi i32 [ 1, %1 ], [ 0, %33 ], [ 1, %47 ], [ 1, %53 ], [ 0, %get_libs_order.exit.i11 ], [ 1, %20 ], [ 1, %26 ]
  ret i32 %.0
}